target datalayout = "e-m:e-p270:32:32-p271:32:32-p272:64:64-i64:64-i128:128-f80:128-n8:16:32:64-S128"
target triple = "x86_64-pc-linux-gnu"

%struct.expert_field = type { i32, i32 }

@hf_uftp_hbreq = internal global i32 0, align 4
@hf_uftp_hbreq_func = internal global i32 0, align 4
@hf_uftp_hbreq_hlen = internal global i32 0, align 4
@hf_uftp_hbreq_reserved = internal global i32 0, align 4
@hf_uftp_hbreq_bloblen = internal global i32 0, align 4
@hf_uftp_hbreq_siglen = internal global i32 0, align 4
@hf_uftp_hbreq_nonce = internal global i32 0, align 4
@hf_uftp_hbreq_keyblob = internal global i32 0, align 4
@hf_uftp_hbreq_verify = internal global i32 0, align 4
@ett_uftp_hbreq = internal global i32 0, align 4
@ei_uftp_length_invalid = internal global %struct.expert_field zeroinitializer, align 4
@.str.416 = private unnamed_addr constant [19 x i8] c"Invalid length: %d\00", align 1
@.str.418 = private unnamed_addr constant [14 x i8] c"%d bytes (%d)\00", align 1
@.str.428 = private unnamed_addr constant [57 x i8] c"Invalid length, len = %d, hlen = %d, keylen=%d siglen=%d\00", align 1

; Function Attrs: null_pointer_is_valid sspstrong uwtable
define internal void @dissect_uftp_hbreq(ptr noundef %0, ptr noundef %1, ptr noundef %2) #0 {
  %4 = alloca ptr, align 8
  %5 = alloca ptr, align 8
  %6 = alloca ptr, align 8
  %7 = alloca ptr, align 8
  %8 = alloca ptr, align 8
  %9 = alloca i32, align 4
  %10 = alloca i32, align 4
  %11 = alloca i16, align 2
  %12 = alloca i16, align 2
  %13 = alloca i8, align 1
  %14 = alloca ptr, align 8
  %15 = alloca i32, align 4
  %16 = alloca i32, align 4
  store ptr %0, ptr %4, align 8
  store ptr %1, ptr %5, align 8
  store ptr %2, ptr %6, align 8
  call void @llvm.lifetime.start.p0(i64 8, ptr %7) #6
  store ptr null, ptr %7, align 8
  call void @llvm.lifetime.start.p0(i64 8, ptr %8) #6
  store ptr null, ptr %8, align 8
  call void @llvm.lifetime.start.p0(i64 4, ptr %9) #6
  store i32 0, ptr %9, align 4
  call void @llvm.lifetime.start.p0(i64 4, ptr %10) #6
  call void @llvm.lifetime.start.p0(i64 2, ptr %11) #6
  call void @llvm.lifetime.start.p0(i64 2, ptr %12) #6
  call void @llvm.lifetime.start.p0(i64 1, ptr %13) #6
  call void @llvm.lifetime.start.p0(i64 8, ptr %14) #6
  %17 = load ptr, ptr %4, align 8
  %18 = call i32 @tvb_reported_length(ptr noundef %17)
  %19 = icmp ult i32 %18, 12
  br i1 %19, label %20, label %28

20:                                               ; preds = %3
  %21 = load ptr, ptr %6, align 8
  %22 = load ptr, ptr %5, align 8
  %23 = load ptr, ptr %4, align 8
  %24 = load i32, ptr %9, align 4
  %25 = load ptr, ptr %4, align 8
  %26 = call i32 @tvb_reported_length(ptr noundef %25)
  %27 = call ptr (ptr, ptr, ptr, ptr, i32, i32, ptr, ...) @proto_tree_add_expert_format(ptr noundef %21, ptr noundef %22, ptr noundef @ei_uftp_length_invalid, ptr noundef %23, i32 noundef %24, i32 noundef -1, ptr noundef @.str.416, i32 noundef %26)
  store i32 1, ptr %15, align 4
  br label %161

28:                                               ; preds = %3
  %29 = load ptr, ptr %4, align 8
  %30 = call zeroext i8 @tvb_get_uint8(ptr noundef %29, i32 noundef 1)
  %31 = zext i8 %30 to i32
  %32 = mul i32 %31, 4
  store i32 %32, ptr %10, align 4
  %33 = load ptr, ptr %4, align 8
  %34 = call zeroext i16 @tvb_get_ntohs(ptr noundef %33, i32 noundef 4)
  store i16 %34, ptr %11, align 2
  %35 = load ptr, ptr %4, align 8
  %36 = call zeroext i16 @tvb_get_ntohs(ptr noundef %35, i32 noundef 6)
  store i16 %36, ptr %12, align 2
  %37 = load ptr, ptr %4, align 8
  %38 = call i32 @tvb_reported_length(ptr noundef %37)
  %39 = load i32, ptr %10, align 4
  %40 = icmp slt i32 %38, %39
  br i1 %40, label %50, label %41

41:                                               ; preds = %28
  %42 = load i32, ptr %10, align 4
  %43 = load i16, ptr %11, align 2
  %44 = zext i16 %43 to i32
  %45 = add i32 12, %44
  %46 = load i16, ptr %12, align 2
  %47 = zext i16 %46 to i32
  %48 = add i32 %45, %47
  %49 = icmp slt i32 %42, %48
  br i1 %49, label %50, label %63

50:                                               ; preds = %41, %28
  %51 = load ptr, ptr %6, align 8
  %52 = load ptr, ptr %5, align 8
  %53 = load ptr, ptr %4, align 8
  %54 = load i32, ptr %9, align 4
  %55 = load ptr, ptr %4, align 8
  %56 = call i32 @tvb_reported_length(ptr noundef %55)
  %57 = load i32, ptr %10, align 4
  %58 = load i16, ptr %11, align 2
  %59 = zext i16 %58 to i32
  %60 = load i16, ptr %12, align 2
  %61 = zext i16 %60 to i32
  %62 = call ptr (ptr, ptr, ptr, ptr, i32, i32, ptr, ...) @proto_tree_add_expert_format(ptr noundef %51, ptr noundef %52, ptr noundef @ei_uftp_length_invalid, ptr noundef %53, i32 noundef %54, i32 noundef -1, ptr noundef @.str.428, i32 noundef %56, i32 noundef %57, i32 noundef %59, i32 noundef %61)
  store i32 1, ptr %15, align 4
  br label %161

63:                                               ; preds = %41
  %64 = load ptr, ptr %6, align 8
  %65 = load i32, ptr @hf_uftp_hbreq, align 4
  %66 = load ptr, ptr %4, align 8
  %67 = load i32, ptr %9, align 4
  %68 = call ptr @proto_tree_add_item(ptr noundef %64, i32 noundef %65, ptr noundef %66, i32 noundef %67, i32 noundef -1, i32 noundef 0)
  store ptr %68, ptr %7, align 8
  %69 = load ptr, ptr %7, align 8
  %70 = load i32, ptr @ett_uftp_hbreq, align 4
  %71 = call ptr @proto_item_add_subtree(ptr noundef %69, i32 noundef %70)
  store ptr %71, ptr %8, align 8
  %72 = load ptr, ptr %8, align 8
  %73 = load i32, ptr @hf_uftp_hbreq_func, align 4
  %74 = load ptr, ptr %4, align 8
  %75 = load i32, ptr %9, align 4
  %76 = call ptr @proto_tree_add_item(ptr noundef %72, i32 noundef %73, ptr noundef %74, i32 noundef %75, i32 noundef 1, i32 noundef 0)
  %77 = load i32, ptr %9, align 4
  %78 = add i32 %77, 1
  store i32 %78, ptr %9, align 4
  %79 = load ptr, ptr %8, align 8
  %80 = load i32, ptr @hf_uftp_hbreq_hlen, align 4
  %81 = load ptr, ptr %4, align 8
  %82 = load i32, ptr %9, align 4
  %83 = load i32, ptr %10, align 4
  %84 = load i32, ptr %10, align 4
  %85 = load i32, ptr %10, align 4
  %86 = sdiv i32 %85, 4
  %87 = call ptr (ptr, i32, ptr, i32, i32, i32, ptr, ...) @proto_tree_add_uint_format_value(ptr noundef %79, i32 noundef %80, ptr noundef %81, i32 noundef %82, i32 noundef 1, i32 noundef %83, ptr noundef @.str.418, i32 noundef %84, i32 noundef %86)
  %88 = load i32, ptr %9, align 4
  %89 = add i32 %88, 1
  store i32 %89, ptr %9, align 4
  %90 = load ptr, ptr %8, align 8
  %91 = load i32, ptr @hf_uftp_hbreq_reserved, align 4
  %92 = load ptr, ptr %4, align 8
  %93 = load i32, ptr %9, align 4
  %94 = call ptr @proto_tree_add_item(ptr noundef %90, i32 noundef %91, ptr noundef %92, i32 noundef %93, i32 noundef 2, i32 noundef 0)
  %95 = load i32, ptr %9, align 4
  %96 = add i32 %95, 2
  store i32 %96, ptr %9, align 4
  %97 = load ptr, ptr %8, align 8
  %98 = load i32, ptr @hf_uftp_hbreq_bloblen, align 4
  %99 = load ptr, ptr %4, align 8
  %100 = load i32, ptr %9, align 4
  %101 = call ptr @proto_tree_add_item(ptr noundef %97, i32 noundef %98, ptr noundef %99, i32 noundef %100, i32 noundef 2, i32 noundef 0)
  %102 = load i32, ptr %9, align 4
  %103 = add i32 %102, 2
  store i32 %103, ptr %9, align 4
  %104 = load ptr, ptr %8, align 8
  %105 = load i32, ptr @hf_uftp_hbreq_siglen, align 4
  %106 = load ptr, ptr %4, align 8
  %107 = load i32, ptr %9, align 4
  %108 = call ptr @proto_tree_add_item(ptr noundef %104, i32 noundef %105, ptr noundef %106, i32 noundef %107, i32 noundef 2, i32 noundef 0)
  %109 = load i32, ptr %9, align 4
  %110 = add i32 %109, 2
  store i32 %110, ptr %9, align 4
  %111 = load ptr, ptr %8, align 8
  %112 = load i32, ptr @hf_uftp_hbreq_nonce, align 4
  %113 = load ptr, ptr %4, align 8
  %114 = load i32, ptr %9, align 4
  %115 = call ptr @proto_tree_add_item(ptr noundef %111, i32 noundef %112, ptr noundef %113, i32 noundef %114, i32 noundef 4, i32 noundef 0)
  %116 = load i32, ptr %9, align 4
  %117 = add i32 %116, 4
  store i32 %117, ptr %9, align 4
  %118 = load i16, ptr %11, align 2
  %119 = zext i16 %118 to i32
  %120 = icmp sgt i32 %119, 0
  br i1 %120, label %121, label %148

121:                                              ; preds = %63
  call void @llvm.lifetime.start.p0(i64 4, ptr %16) #6
  store i32 0, ptr %16, align 4
  %122 = load ptr, ptr %4, align 8
  %123 = load i32, ptr %9, align 4
  %124 = load i16, ptr %11, align 2
  %125 = zext i16 %124 to i32
  %126 = call ptr @tvb_new_subset_length(ptr noundef %122, i32 noundef %123, i32 noundef %125)
  store ptr %126, ptr %14, align 8
  %127 = load ptr, ptr %4, align 8
  %128 = load i32, ptr %9, align 4
  %129 = call zeroext i8 @tvb_get_uint8(ptr noundef %127, i32 noundef %128)
  store i8 %129, ptr %13, align 1
  %130 = load i8, ptr %13, align 1
  %131 = sext i8 %130 to i32
  switch i32 %131, label %144 [
    i32 1, label %132
    i32 2, label %138
  ]

132:                                              ; preds = %121
  %133 = load ptr, ptr %14, align 8
  %134 = load ptr, ptr %5, align 8
  %135 = load ptr, ptr %8, align 8
  %136 = load i32, ptr @hf_uftp_hbreq_keyblob, align 4
  %137 = call i32 @dissect_uftp_rsablob(ptr noundef %133, ptr noundef %134, ptr noundef %135, i32 noundef %136)
  store i32 %137, ptr %16, align 4
  br label %144

138:                                              ; preds = %121
  %139 = load ptr, ptr %14, align 8
  %140 = load ptr, ptr %5, align 8
  %141 = load ptr, ptr %8, align 8
  %142 = load i32, ptr @hf_uftp_hbreq_keyblob, align 4
  %143 = call i32 @dissect_uftp_ecblob(ptr noundef %139, ptr noundef %140, ptr noundef %141, i32 noundef %142)
  store i32 %143, ptr %16, align 4
  br label %144

144:                                              ; preds = %121, %138, %132
  %145 = load i32, ptr %16, align 4
  %146 = load i32, ptr %9, align 4
  %147 = add i32 %146, %145
  store i32 %147, ptr %9, align 4
  call void @llvm.lifetime.end.p0(i64 4, ptr %16) #6
  br label %148

148:                                              ; preds = %144, %63
  %149 = load i16, ptr %12, align 2
  %150 = zext i16 %149 to i32
  %151 = icmp sgt i32 %150, 0
  br i1 %151, label %152, label %160

152:                                              ; preds = %148
  %153 = load ptr, ptr %8, align 8
  %154 = load i32, ptr @hf_uftp_hbreq_verify, align 4
  %155 = load ptr, ptr %4, align 8
  %156 = load i32, ptr %9, align 4
  %157 = load i16, ptr %12, align 2
  %158 = zext i16 %157 to i32
  %159 = call ptr @proto_tree_add_item(ptr noundef %153, i32 noundef %154, ptr noundef %155, i32 noundef %156, i32 noundef %158, i32 noundef 0)
  br label %160

160:                                              ; preds = %152, %148
  store i32 0, ptr %15, align 4
  br label %161

161:                                              ; preds = %160, %50, %20
  call void @llvm.lifetime.end.p0(i64 8, ptr %14) #6
  call void @llvm.lifetime.end.p0(i64 1, ptr %13) #6
  call void @llvm.lifetime.end.p0(i64 2, ptr %12) #6
  call void @llvm.lifetime.end.p0(i64 2, ptr %11) #6
  call void @llvm.lifetime.end.p0(i64 4, ptr %10) #6
  call void @llvm.lifetime.end.p0(i64 4, ptr %9) #6
  call void @llvm.lifetime.end.p0(i64 8, ptr %8) #6
  call void @llvm.lifetime.end.p0(i64 8, ptr %7) #6
  %162 = load i32, ptr %15, align 4
  switch i32 %162, label %164 [
    i32 0, label %163
    i32 1, label %163
  ]

163:                                              ; preds = %161, %161
  ret void

164:                                              ; preds = %161
  unreachable
}