; Function Attrs: null_pointer_is_valid sspstrong uwtable
define internal fastcc void @dissect_uftp_hbreq(ptr noundef %0, ptr noundef %1, ptr noundef %2) unnamed_addr #0 {
  %4 = tail call i32 @tvb_reported_length(ptr noundef %0)
  %5 = icmp ult i32 %4, 12
  br i1 %5, label %6, label %9

6:                                                ; preds = %3
  %7 = tail call i32 @tvb_reported_length(ptr noundef %0)
  %8 = tail call ptr (ptr, ptr, ptr, ptr, i32, i32, ptr, ...) @proto_tree_add_expert_format(ptr noundef %2, ptr noundef %1, ptr noundef nonnull @ei_uftp_length_invalid, ptr noundef %0, i32 noundef 0, i32 noundef -1, ptr noundef nonnull @.str.416, i32 noundef %7)
  br label %57

9:                                                ; preds = %3
  %10 = tail call zeroext i8 @tvb_get_uint8(ptr noundef %0, i32 noundef 1)
  %11 = zext i8 %10 to i32
  %12 = shl nuw nsw i32 %11, 2
  %13 = tail call zeroext i16 @tvb_get_ntohs(ptr noundef %0, i32 noundef 4)
  %14 = tail call zeroext i16 @tvb_get_ntohs(ptr noundef %0, i32 noundef 6)
  %15 = tail call i32 @tvb_reported_length(ptr noundef %0)
  %16 = icmp slt i32 %15, %12
  %.pre = zext i16 %13 to i32
  br i1 %16, label %._crit_edge, label %17

._crit_edge:                                      ; preds = %9
  %.pre77 = zext i16 %14 to i32
  br label %22

17:                                               ; preds = %9
  %18 = add nuw nsw i32 %.pre, 12
  %19 = zext i16 %14 to i32
  %20 = add nuw nsw i32 %18, %19
  %21 = icmp samesign ult i32 %12, %20
  br i1 %21, label %22, label %25

22:                                               ; preds = %._crit_edge, %17
  %.pre-phi78 = phi i32 [ %.pre77, %._crit_edge ], [ %19, %17 ]
  %23 = tail call i32 @tvb_reported_length(ptr noundef %0)
  %24 = tail call ptr (ptr, ptr, ptr, ptr, i32, i32, ptr, ...) @proto_tree_add_expert_format(ptr noundef %2, ptr noundef %1, ptr noundef nonnull @ei_uftp_length_invalid, ptr noundef %0, i32 noundef 0, i32 noundef -1, ptr noundef nonnull @.str.428, i32 noundef %23, i32 noundef %12, i32 noundef %.pre, i32 noundef %.pre-phi78)
  br label %57

25:                                               ; preds = %17
  %26 = load i32, ptr @hf_uftp_hbreq, align 4
  %27 = tail call ptr @proto_tree_add_item(ptr noundef %2, i32 noundef %26, ptr noundef %0, i32 noundef 0, i32 noundef -1, i32 noundef 0)
  %28 = load i32, ptr @ett_uftp_hbreq, align 4
  %29 = tail call ptr @proto_item_add_subtree(ptr noundef %27, i32 noundef %28)
  %30 = load i32, ptr @hf_uftp_hbreq_func, align 4
  %31 = tail call ptr @proto_tree_add_item(ptr noundef %29, i32 noundef %30, ptr noundef %0, i32 noundef 0, i32 noundef 1, i32 noundef 0)
  %32 = load i32, ptr @hf_uftp_hbreq_hlen, align 4
  %33 = tail call ptr (ptr, i32, ptr, i32, i32, i32, ptr, ...) @proto_tree_add_uint_format_value(ptr noundef %29, i32 noundef %32, ptr noundef %0, i32 noundef 1, i32 noundef 1, i32 noundef %12, ptr noundef nonnull @.str.418, i32 noundef %12, i32 noundef %11)
  %34 = load i32, ptr @hf_uftp_hbreq_reserved, align 4
  %35 = tail call ptr @proto_tree_add_item(ptr noundef %29, i32 noundef %34, ptr noundef %0, i32 noundef 2, i32 noundef 2, i32 noundef 0)
  %36 = load i32, ptr @hf_uftp_hbreq_bloblen, align 4
  %37 = tail call ptr @proto_tree_add_item(ptr noundef %29, i32 noundef %36, ptr noundef %0, i32 noundef 4, i32 noundef 2, i32 noundef 0)
  %38 = load i32, ptr @hf_uftp_hbreq_siglen, align 4
  %39 = tail call ptr @proto_tree_add_item(ptr noundef %29, i32 noundef %38, ptr noundef %0, i32 noundef 6, i32 noundef 2, i32 noundef 0)
  %40 = load i32, ptr @hf_uftp_hbreq_nonce, align 4
  %41 = tail call ptr @proto_tree_add_item(ptr noundef %29, i32 noundef %40, ptr noundef %0, i32 noundef 8, i32 noundef 4, i32 noundef 0)
  %.not = icmp eq i16 %13, 0
  br i1 %.not, label %53, label %42

42:                                               ; preds = %25
  %43 = tail call ptr @tvb_new_subset_length(ptr noundef %0, i32 noundef 12, i32 noundef %.pre)
  %44 = tail call zeroext i8 @tvb_get_uint8(ptr noundef %0, i32 noundef 12)
  switch i8 %44, label %51 [
    i8 1, label %45
    i8 2, label %48
  ]

45:                                               ; preds = %42
  %46 = load i32, ptr @hf_uftp_hbreq_keyblob, align 4
  %47 = tail call fastcc i32 @dissect_uftp_rsablob(ptr noundef %43, ptr noundef %1, ptr noundef %29, i32 noundef %46)
  br label %51

48:                                               ; preds = %42
  %49 = load i32, ptr @hf_uftp_hbreq_keyblob, align 4
  %50 = tail call fastcc i32 @dissect_uftp_ecblob(ptr noundef %43, ptr noundef %1, ptr noundef %29, i32 noundef %49)
  br label %51

51:                                               ; preds = %48, %45, %42
  %.0 = phi i32 [ 0, %42 ], [ %50, %48 ], [ %47, %45 ]
  %52 = add nuw nsw i32 %.0, 12
  br label %53

53:                                               ; preds = %51, %25
  %.072 = phi i32 [ %52, %51 ], [ 12, %25 ]
  %.not76 = icmp eq i16 %14, 0
  br i1 %.not76, label %57, label %54

54:                                               ; preds = %53
  %55 = load i32, ptr @hf_uftp_hbreq_verify, align 4
  %56 = tail call ptr @proto_tree_add_item(ptr noundef %29, i32 noundef %55, ptr noundef %0, i32 noundef %.072, i32 noundef %19, i32 noundef 0)
  br label %57

57:                                               ; preds = %53, %54, %22, %6
  ret void
}